; Function Attrs: mustprogress uwtable
define dso_local void @_ZN3net18SourceAddressToken10SharedDtorEv(ptr noundef nonnull align 8 dereferenceable(56) %this) local_unnamed_addr #1 align 2 {
entry:
  %_unknown_fields_ = getelementptr inbounds i8, ptr %this, i64 8
  %0 = load ptr, ptr @_ZN6google8protobuf8internal13empty_string_B5cxx11E, align 8
  tail call void @_ZN6google8protobuf8internal14ArenaStringPtr14DestroyNoArenaEPKNSt7__cxx1112basic_stringIcSt11char_traitsIcESaIcEEE(ptr noundef nonnull align 8 dereferenceable(8) %_unknown_fields_, ptr noundef nonnull %0)
  %ip_ = getelementptr inbounds i8, ptr %this, i64 32
  %1 = load ptr, ptr @_ZN6google8protobuf8internal13empty_string_B5cxx11E, align 8
  tail call void @_ZN6google8protobuf8internal14ArenaStringPtr14DestroyNoArenaEPKNSt7__cxx1112basic_stringIcSt11char_traitsIcESaIcEEE(ptr noundef nonnull align 8 dereferenceable(8) %ip_, ptr noundef nonnull %1)
  %2 = load ptr, ptr @_ZN3net18SourceAddressToken17default_instance_E, align 8
  %cmp.not = icmp eq ptr %2, %this
  br i1 %cmp.not, label %if.end, label %if.then

if.then:                                          ; preds = %entry
  %cached_network_parameters_ = getelementptr inbounds i8, ptr %this, i64 48
  %3 = load ptr, ptr %cached_network_parameters_, align 8
  %isnull = icmp eq ptr %3, null
  br i1 %isnull, label %if.end, label %delete.notnull

delete.notnull:                                   ; preds = %if.then
  %vtable = load ptr, ptr %3, align 8
  %vfn = getelementptr inbounds i8, ptr %vtable, i64 8
  %4 = load ptr, ptr %vfn, align 8
  tail call void %4(ptr noundef nonnull align 8 dereferenceable(72) %3) #14
  br label %if.end

if.end:                                           ; preds = %if.then, %delete.notnull, %entry
  ret void
}